target datalayout = "e-m:e-p270:32:32-p271:32:32-p272:64:64-i64:64-i128:128-f80:128-n8:16:32:64-S128"
target triple = "x86_64-pc-linux-gnu"

%struct.tiff_t = type { ptr, i32, i32, i16, i16, i16, i32, ptr, ptr, ptr }
%struct.dt_colorspaces_color_profile_t = type { i32, [512 x i8], [512 x i8], ptr, i32, i32, i32, i32, i32, i32 }

@.str.11 = private unnamed_addr constant [1 x i8] zeroinitializer, align 1

; Function Attrs: inlinehint nounwind uwtable
define internal i32 @_read_chunky_16_Lab(ptr noundef %0, i16 noundef zeroext %1) #4 {
  %3 = alloca i32, align 4
  %4 = alloca ptr, align 8
  %5 = alloca i16, align 2
  %6 = alloca ptr, align 8
  %7 = alloca ptr, align 8
  %8 = alloca ptr, align 8
  %9 = alloca float, align 4
  %10 = alloca i32, align 4
  %11 = alloca i32, align 4
  %12 = alloca ptr, align 8
  %13 = alloca ptr, align 8
  %14 = alloca ptr, align 8
  %15 = alloca i32, align 4
  store ptr %0, ptr %4, align 8, !tbaa !90
  store i16 %1, ptr %5, align 2, !tbaa !36
  call void @llvm.lifetime.start.p0(i64 8, ptr %6) #8
  %16 = call ptr @dt_colorspaces_get_profile(i32 noundef 6, ptr noundef @.str.11, i32 noundef 63)
  %17 = getelementptr inbounds nuw %struct.dt_colorspaces_color_profile_t, ptr %16, i32 0, i32 3
  %18 = load ptr, ptr %17, align 8, !tbaa !92
  store ptr %18, ptr %6, align 8, !tbaa !94
  call void @llvm.lifetime.start.p0(i64 8, ptr %7) #8
  %19 = call ptr @dt_colorspaces_get_profile(i32 noundef 4, ptr noundef @.str.11, i32 noundef 63)
  %20 = getelementptr inbounds nuw %struct.dt_colorspaces_color_profile_t, ptr %19, i32 0, i32 3
  %21 = load ptr, ptr %20, align 8, !tbaa !92
  store ptr %21, ptr %7, align 8, !tbaa !94
  call void @llvm.lifetime.start.p0(i64 8, ptr %8) #8
  %22 = load ptr, ptr %6, align 8, !tbaa !94
  %23 = load ptr, ptr %7, align 8, !tbaa !94
  %24 = call ptr @cmsCreateTransform(ptr noundef %22, i32 noundef 4849820, ptr noundef %23, i32 noundef 4456604, i32 noundef 0, i32 noundef 0)
  store ptr %24, ptr %8, align 8, !tbaa !94
  call void @llvm.lifetime.start.p0(i64 4, ptr %9) #8
  %25 = load i16, ptr %5, align 2, !tbaa !36
  %26 = zext i16 %25 to i32
  %27 = icmp eq i32 %26, 8
  %28 = select reassoc nsz arcp contract afn i1 %27, float 6.553500e+04, float 6.528000e+04
  store float %28, ptr %9, align 4, !tbaa !96
  call void @llvm.lifetime.start.p0(i64 4, ptr %10) #8
  store i32 0, ptr %10, align 4, !tbaa !86
  br label %29

29:                                               ; preds = %151, %2
  %30 = load i32, ptr %10, align 4, !tbaa !86
  %31 = load ptr, ptr %4, align 8, !tbaa !90
  %32 = getelementptr inbounds nuw %struct.tiff_t, ptr %31, i32 0, i32 2
  %33 = load i32, ptr %32, align 4, !tbaa !73
  %34 = icmp ult i32 %30, %33
  br i1 %34, label %36, label %35

35:                                               ; preds = %29
  store i32 2, ptr %11, align 4
  br label %154

36:                                               ; preds = %29
  call void @llvm.lifetime.start.p0(i64 8, ptr %12) #8
  %37 = load ptr, ptr %4, align 8, !tbaa !90
  %38 = getelementptr inbounds nuw %struct.tiff_t, ptr %37, i32 0, i32 9
  %39 = load ptr, ptr %38, align 8, !tbaa !83
  store ptr %39, ptr %12, align 8, !tbaa !97
  call void @llvm.lifetime.start.p0(i64 8, ptr %13) #8
  %40 = load ptr, ptr %4, align 8, !tbaa !90
  %41 = getelementptr inbounds nuw %struct.tiff_t, ptr %40, i32 0, i32 8
  %42 = load ptr, ptr %41, align 8, !tbaa !82
  %43 = load i32, ptr %10, align 4, !tbaa !86
  %44 = zext i32 %43 to i64
  %45 = mul i64 4, %44
  %46 = load ptr, ptr %4, align 8, !tbaa !90
  %47 = getelementptr inbounds nuw %struct.tiff_t, ptr %46, i32 0, i32 1
  %48 = load i32, ptr %47, align 8, !tbaa !72
  %49 = zext i32 %48 to i64
  %50 = mul i64 %45, %49
  %51 = getelementptr inbounds nuw float, ptr %42, i64 %50
  store ptr %51, ptr %13, align 8, !tbaa !95
  call void @llvm.lifetime.start.p0(i64 8, ptr %14) #8
  %52 = load ptr, ptr %13, align 8, !tbaa !95
  store ptr %52, ptr %14, align 8, !tbaa !95
  %53 = load ptr, ptr %4, align 8, !tbaa !90
  %54 = getelementptr inbounds nuw %struct.tiff_t, ptr %53, i32 0, i32 0
  %55 = load ptr, ptr %54, align 8, !tbaa !35
  %56 = load ptr, ptr %12, align 8, !tbaa !97
  %57 = load i32, ptr %10, align 4, !tbaa !86
  %58 = call i32 @TIFFReadScanline(ptr noundef %55, ptr noundef %56, i32 noundef %57, i16 noundef zeroext 0)
  %59 = icmp eq i32 %58, -1
  br i1 %59, label %60, label %61

60:                                               ; preds = %36
  store i32 5, ptr %11, align 4
  br label %148

61:                                               ; preds = %36
  call void @llvm.lifetime.start.p0(i64 4, ptr %15) #8
  store i32 0, ptr %15, align 4, !tbaa !86
  br label %62

62:                                               ; preds = %129, %61
  %63 = load i32, ptr %15, align 4, !tbaa !86
  %64 = load ptr, ptr %4, align 8, !tbaa !90
  %65 = getelementptr inbounds nuw %struct.tiff_t, ptr %64, i32 0, i32 1
  %66 = load i32, ptr %65, align 8, !tbaa !72
  %67 = icmp ult i32 %63, %66
  br i1 %67, label %69, label %68

68:                                               ; preds = %62
  store i32 6, ptr %11, align 4
  call void @llvm.lifetime.end.p0(i64 4, ptr %15) #8
  br label %141

69:                                               ; preds = %62
  %70 = load ptr, ptr %12, align 8, !tbaa !97
  %71 = getelementptr inbounds i16, ptr %70, i64 0
  %72 = load i16, ptr %71, align 2, !tbaa !36
  %73 = uitofp i16 %72 to float
  %74 = load float, ptr %9, align 4, !tbaa !96
  %75 = fdiv reassoc nsz arcp contract afn float 1.000000e+02, %74
  %76 = fmul reassoc nsz arcp contract afn float %73, %75
  %77 = load ptr, ptr %14, align 8, !tbaa !95
  %78 = getelementptr inbounds float, ptr %77, i64 0
  store float %76, ptr %78, align 4, !tbaa !96
  %79 = load ptr, ptr %4, align 8, !tbaa !90
  %80 = getelementptr inbounds nuw %struct.tiff_t, ptr %79, i32 0, i32 4
  %81 = load i16, ptr %80, align 2, !tbaa !75
  %82 = zext i16 %81 to i32
  %83 = icmp slt i32 %82, 3
  br i1 %83, label %84, label %89

84:                                               ; preds = %69
  %85 = load ptr, ptr %14, align 8, !tbaa !95
  %86 = getelementptr inbounds float, ptr %85, i64 2
  store float 0.000000e+00, ptr %86, align 4, !tbaa !96
  %87 = load ptr, ptr %14, align 8, !tbaa !95
  %88 = getelementptr inbounds float, ptr %87, i64 1
  store float 0.000000e+00, ptr %88, align 4, !tbaa !96
  br label %126

89:                                               ; preds = %69
  %90 = load i16, ptr %5, align 2, !tbaa !36
  %91 = zext i16 %90 to i32
  %92 = icmp eq i32 %91, 8
  br i1 %92, label %93, label %108

93:                                               ; preds = %89
  %94 = load ptr, ptr %12, align 8, !tbaa !97
  %95 = getelementptr inbounds i16, ptr %94, i64 1
  %96 = load i16, ptr %95, align 2, !tbaa !36
  %97 = sitofp i16 %96 to float
  %98 = fdiv reassoc nsz arcp contract afn float %97, 2.560000e+02
  %99 = load ptr, ptr %14, align 8, !tbaa !95
  %100 = getelementptr inbounds float, ptr %99, i64 1
  store float %98, ptr %100, align 4, !tbaa !96
  %101 = load ptr, ptr %12, align 8, !tbaa !97
  %102 = getelementptr inbounds i16, ptr %101, i64 2
  %103 = load i16, ptr %102, align 2, !tbaa !36
  %104 = sitofp i16 %103 to float
  %105 = fdiv reassoc nsz arcp contract afn float %104, 2.560000e+02
  %106 = load ptr, ptr %14, align 8, !tbaa !95
  %107 = getelementptr inbounds float, ptr %106, i64 2
  store float %105, ptr %107, align 4, !tbaa !96
  br label %125

108:                                              ; preds = %89
  %109 = load ptr, ptr %12, align 8, !tbaa !97
  %110 = getelementptr inbounds i16, ptr %109, i64 1
  %111 = load i16, ptr %110, align 2, !tbaa !36
  %112 = uitofp i16 %111 to float
  %113 = fsub reassoc nsz arcp contract afn float %112, 3.276800e+04
  %114 = fdiv reassoc nsz arcp contract afn float %113, 2.560000e+02
  %115 = load ptr, ptr %14, align 8, !tbaa !95
  %116 = getelementptr inbounds float, ptr %115, i64 1
  store float %114, ptr %116, align 4, !tbaa !96
  %117 = load ptr, ptr %12, align 8, !tbaa !97
  %118 = getelementptr inbounds i16, ptr %117, i64 2
  %119 = load i16, ptr %118, align 2, !tbaa !36
  %120 = uitofp i16 %119 to float
  %121 = fsub reassoc nsz arcp contract afn float %120, 3.276800e+04
  %122 = fdiv reassoc nsz arcp contract afn float %121, 2.560000e+02
  %123 = load ptr, ptr %14, align 8, !tbaa !95
  %124 = getelementptr inbounds float, ptr %123, i64 2
  store float %122, ptr %124, align 4, !tbaa !96
  br label %125

125:                                              ; preds = %108, %93
  br label %126

126:                                              ; preds = %125, %84
  %127 = load ptr, ptr %14, align 8, !tbaa !95
  %128 = getelementptr inbounds float, ptr %127, i64 3
  store float 0.000000e+00, ptr %128, align 4, !tbaa !96
  br label %129

129:                                              ; preds = %126
  %130 = load i32, ptr %15, align 4, !tbaa !86
  %131 = add i32 %130, 1
  store i32 %131, ptr %15, align 4, !tbaa !86
  %132 = load ptr, ptr %4, align 8, !tbaa !90
  %133 = getelementptr inbounds nuw %struct.tiff_t, ptr %132, i32 0, i32 4
  %134 = load i16, ptr %133, align 2, !tbaa !75
  %135 = zext i16 %134 to i32
  %136 = load ptr, ptr %12, align 8, !tbaa !97
  %137 = sext i32 %135 to i64
  %138 = getelementptr inbounds i16, ptr %136, i64 %137
  store ptr %138, ptr %12, align 8, !tbaa !97
  %139 = load ptr, ptr %14, align 8, !tbaa !95
  %140 = getelementptr inbounds float, ptr %139, i64 4
  store ptr %140, ptr %14, align 8, !tbaa !95
  br label %62

141:                                              ; preds = %68
  %142 = load ptr, ptr %8, align 8, !tbaa !94
  %143 = load ptr, ptr %13, align 8, !tbaa !95
  %144 = load ptr, ptr %13, align 8, !tbaa !95
  %145 = load ptr, ptr %4, align 8, !tbaa !90
  %146 = getelementptr inbounds nuw %struct.tiff_t, ptr %145, i32 0, i32 1
  %147 = load i32, ptr %146, align 8, !tbaa !72
  call void @cmsDoTransform(ptr noundef %142, ptr noundef %143, ptr noundef %144, i32 noundef %147)
  store i32 0, ptr %11, align 4
  br label %148

148:                                              ; preds = %60, %141
  call void @llvm.lifetime.end.p0(i64 8, ptr %14) #8
  call void @llvm.lifetime.end.p0(i64 8, ptr %13) #8
  call void @llvm.lifetime.end.p0(i64 8, ptr %12) #8
  %149 = load i32, ptr %11, align 4
  switch i32 %149, label %154 [
    i32 0, label %150
  ]

150:                                              ; preds = %148
  br label %151

151:                                              ; preds = %150
  %152 = load i32, ptr %10, align 4, !tbaa !86
  %153 = add i32 %152, 1
  store i32 %153, ptr %10, align 4, !tbaa !86
  br label %29

154:                                              ; preds = %148, %35
  call void @llvm.lifetime.end.p0(i64 4, ptr %10) #8
  %155 = load i32, ptr %11, align 4
  switch i32 %155, label %160 [
    i32 2, label %156
    i32 5, label %158
  ]

156:                                              ; preds = %154
  %157 = load ptr, ptr %8, align 8, !tbaa !94
  call void @cmsDeleteTransform(ptr noundef %157)
  store i32 1, ptr %3, align 4
  store i32 1, ptr %11, align 4
  br label %160

158:                                              ; preds = %154
  %159 = load ptr, ptr %8, align 8, !tbaa !94
  call void @cmsDeleteTransform(ptr noundef %159)
  store i32 -1, ptr %3, align 4
  store i32 1, ptr %11, align 4
  br label %160

160:                                              ; preds = %158, %156, %154
  call void @llvm.lifetime.end.p0(i64 4, ptr %9) #8
  call void @llvm.lifetime.end.p0(i64 8, ptr %8) #8
  call void @llvm.lifetime.end.p0(i64 8, ptr %7) #8
  call void @llvm.lifetime.end.p0(i64 8, ptr %6) #8
  %161 = load i32, ptr %3, align 4
  ret i32 %161
}