; Function Attrs: inlinehint nounwind uwtable
define internal fastcc range(i32 -1, 2) i32 @_read_chunky_16_Lab(ptr noundef nonnull readonly captures(none) %0, i16 noundef zeroext %1) unnamed_addr #6 {
  %3 = tail call ptr @dt_colorspaces_get_profile(i32 noundef 6, ptr noundef nonnull @.str.11, i32 noundef 63) #11
  %4 = getelementptr inbounds nuw i8, ptr %3, i64 1032
  %5 = load ptr, ptr %4, align 8, !tbaa !83
  %6 = tail call ptr @dt_colorspaces_get_profile(i32 noundef 4, ptr noundef nonnull @.str.11, i32 noundef 63) #11
  %7 = getelementptr inbounds nuw i8, ptr %6, i64 1032
  %8 = load ptr, ptr %7, align 8, !tbaa !83
  %9 = tail call ptr @cmsCreateTransform(ptr noundef %5, i32 noundef 4849820, ptr noundef %8, i32 noundef 4456604, i32 noundef 0, i32 noundef 0) #11
  %10 = getelementptr inbounds nuw i8, ptr %0, i64 12
  %11 = load i32, ptr %10, align 4, !tbaa !69
  %.not69 = icmp eq i32 %11, 0
  br i1 %.not69, label %.thread51, label %.lr.ph65

.lr.ph65:                                         ; preds = %2
  %12 = icmp eq i16 %1, 8
  %13 = getelementptr inbounds nuw i8, ptr %0, i64 48
  %14 = getelementptr inbounds nuw i8, ptr %0, i64 40
  %15 = getelementptr inbounds nuw i8, ptr %0, i64 8
  %16 = select i1 %12, float 0x3F59001900000000, float 0x3F59191920000000
  %17 = getelementptr inbounds nuw i8, ptr %0, i64 18
  br i1 %12, label %.lr.ph65.split.us, label %.lr.ph65.split

.lr.ph65.split.us:                                ; preds = %.lr.ph65, %._crit_edge.us
  %indvars.iv80 = phi i64 [ %indvars.iv.next81, %._crit_edge.us ], [ 0, %.lr.ph65 ]
  %18 = load ptr, ptr %13, align 8, !tbaa !79
  %19 = load ptr, ptr %14, align 8, !tbaa !78
  %20 = shl nuw nsw i64 %indvars.iv80, 2
  %21 = load i32, ptr %15, align 8, !tbaa !68
  %22 = zext i32 %21 to i64
  %23 = mul i64 %20, %22
  %24 = getelementptr inbounds nuw float, ptr %19, i64 %23
  %25 = load ptr, ptr %0, align 8, !tbaa !31
  %26 = trunc nuw i64 %indvars.iv80 to i32
  %27 = tail call i32 @TIFFReadScanline(ptr noundef %25, ptr noundef %18, i32 noundef %26, i16 noundef zeroext 0) #11
  %.not.us = icmp eq i32 %27, -1
  br i1 %.not.us, label %.thread51, label %.preheader.us

._crit_edge.us:                                   ; preds = %.lr.ph.split.us67, %.lr.ph.split.us.us, %.preheader.us
  tail call void @cmsDoTransform(ptr noundef %9, ptr noundef %24, ptr noundef %24, i32 noundef %31) #11
  %indvars.iv.next81 = add nuw nsw i64 %indvars.iv80, 1
  %28 = load i32, ptr %10, align 4, !tbaa !69
  %29 = zext i32 %28 to i64
  %30 = icmp samesign ult i64 %indvars.iv.next81, %29
  br i1 %30, label %.lr.ph65.split.us, label %.thread51

.preheader.us:                                    ; preds = %.lr.ph65.split.us
  %31 = load i32, ptr %15, align 8, !tbaa !68
  %.not71 = icmp eq i32 %31, 0
  br i1 %.not71, label %._crit_edge.us, label %.lr.ph.us

.lr.ph.us:                                        ; preds = %.preheader.us
  %32 = load i16, ptr %17, align 2, !tbaa !71
  %33 = icmp ult i16 %32, 3
  %34 = zext i16 %32 to i64
  br i1 %33, label %.lr.ph.split.us.us, label %.lr.ph.split.us67

.lr.ph.split.us.us:                               ; preds = %.lr.ph.us, %.lr.ph.split.us.us
  %.057.us.us = phi i32 [ %41, %.lr.ph.split.us.us ], [ 0, %.lr.ph.us ]
  %.04456.us.us = phi ptr [ %43, %.lr.ph.split.us.us ], [ %24, %.lr.ph.us ]
  %.04655.us.us = phi ptr [ %42, %.lr.ph.split.us.us ], [ %18, %.lr.ph.us ]
  %35 = load i16, ptr %.04655.us.us, align 2, !tbaa !32
  %36 = uitofp i16 %35 to float
  %37 = fmul reassoc nsz arcp contract afn float %16, %36
  store float %37, ptr %.04456.us.us, align 4, !tbaa !85
  %38 = getelementptr inbounds nuw i8, ptr %.04456.us.us, i64 8
  store float 0.000000e+00, ptr %38, align 4, !tbaa !85
  %39 = getelementptr inbounds nuw i8, ptr %.04456.us.us, i64 4
  store float 0.000000e+00, ptr %39, align 4, !tbaa !85
  %40 = getelementptr inbounds nuw i8, ptr %.04456.us.us, i64 12
  store float 0.000000e+00, ptr %40, align 4, !tbaa !85
  %41 = add nuw i32 %.057.us.us, 1
  %42 = getelementptr inbounds nuw i16, ptr %.04655.us.us, i64 %34
  %43 = getelementptr inbounds nuw i8, ptr %.04456.us.us, i64 16
  %exitcond79.not = icmp eq i32 %41, %31
  br i1 %exitcond79.not, label %._crit_edge.us, label %.lr.ph.split.us.us

.lr.ph.split.us67:                                ; preds = %.lr.ph.us, %.lr.ph.split.us67
  %.057.us58.us = phi i32 [ %58, %.lr.ph.split.us67 ], [ 0, %.lr.ph.us ]
  %.04456.us59.us = phi ptr [ %60, %.lr.ph.split.us67 ], [ %24, %.lr.ph.us ]
  %.04655.us60.us = phi ptr [ %59, %.lr.ph.split.us67 ], [ %18, %.lr.ph.us ]
  %44 = load i16, ptr %.04655.us60.us, align 2, !tbaa !32
  %45 = uitofp i16 %44 to float
  %46 = fmul reassoc nsz arcp contract afn float %16, %45
  store float %46, ptr %.04456.us59.us, align 4, !tbaa !85
  %47 = getelementptr inbounds nuw i8, ptr %.04655.us60.us, i64 2
  %48 = load i16, ptr %47, align 2, !tbaa !32
  %49 = sitofp i16 %48 to float
  %50 = fmul reassoc nsz arcp contract afn float %49, 3.906250e-03
  %51 = getelementptr inbounds nuw i8, ptr %.04456.us59.us, i64 4
  store float %50, ptr %51, align 4, !tbaa !85
  %52 = getelementptr inbounds nuw i8, ptr %.04655.us60.us, i64 4
  %53 = load i16, ptr %52, align 2, !tbaa !32
  %54 = sitofp i16 %53 to float
  %55 = fmul reassoc nsz arcp contract afn float %54, 3.906250e-03
  %56 = getelementptr inbounds nuw i8, ptr %.04456.us59.us, i64 8
  store float %55, ptr %56, align 4, !tbaa !85
  %57 = getelementptr inbounds nuw i8, ptr %.04456.us59.us, i64 12
  store float 0.000000e+00, ptr %57, align 4, !tbaa !85
  %58 = add nuw i32 %.057.us58.us, 1
  %59 = getelementptr inbounds nuw i16, ptr %.04655.us60.us, i64 %34
  %60 = getelementptr inbounds nuw i8, ptr %.04456.us59.us, i64 16
  %exitcond78.not = icmp eq i32 %58, %31
  br i1 %exitcond78.not, label %._crit_edge.us, label %.lr.ph.split.us67

.lr.ph65.split:                                   ; preds = %.lr.ph65, %._crit_edge
  %indvars.iv = phi i64 [ %indvars.iv.next, %._crit_edge ], [ 0, %.lr.ph65 ]
  %61 = load ptr, ptr %13, align 8, !tbaa !79
  %62 = load ptr, ptr %14, align 8, !tbaa !78
  %63 = shl nuw nsw i64 %indvars.iv, 2
  %64 = load i32, ptr %15, align 8, !tbaa !68
  %65 = zext i32 %64 to i64
  %66 = mul i64 %63, %65
  %67 = getelementptr inbounds nuw float, ptr %62, i64 %66
  %68 = load ptr, ptr %0, align 8, !tbaa !31
  %69 = trunc nuw i64 %indvars.iv to i32
  %70 = tail call i32 @TIFFReadScanline(ptr noundef %68, ptr noundef %61, i32 noundef %69, i16 noundef zeroext 0) #11
  %.not = icmp eq i32 %70, -1
  br i1 %.not, label %.thread51, label %.preheader

.preheader:                                       ; preds = %.lr.ph65.split
  %71 = load i32, ptr %15, align 8, !tbaa !68
  %.not70 = icmp eq i32 %71, 0
  br i1 %.not70, label %._crit_edge, label %.lr.ph

.lr.ph:                                           ; preds = %.preheader
  %72 = load i16, ptr %17, align 2, !tbaa !71
  %73 = icmp ult i16 %72, 3
  %74 = zext i16 %72 to i64
  br i1 %73, label %.lr.ph.split.us, label %.lr.ph.split

.lr.ph.split.us:                                  ; preds = %.lr.ph, %.lr.ph.split.us
  %.057.us = phi i32 [ %81, %.lr.ph.split.us ], [ 0, %.lr.ph ]
  %.04456.us = phi ptr [ %83, %.lr.ph.split.us ], [ %67, %.lr.ph ]
  %.04655.us = phi ptr [ %82, %.lr.ph.split.us ], [ %61, %.lr.ph ]
  %75 = load i16, ptr %.04655.us, align 2, !tbaa !32
  %76 = uitofp i16 %75 to float
  %77 = fmul reassoc nsz arcp contract afn float %16, %76
  store float %77, ptr %.04456.us, align 4, !tbaa !85
  %78 = getelementptr inbounds nuw i8, ptr %.04456.us, i64 8
  store float 0.000000e+00, ptr %78, align 4, !tbaa !85
  %79 = getelementptr inbounds nuw i8, ptr %.04456.us, i64 4
  store float 0.000000e+00, ptr %79, align 4, !tbaa !85
  %80 = getelementptr inbounds nuw i8, ptr %.04456.us, i64 12
  store float 0.000000e+00, ptr %80, align 4, !tbaa !85
  %81 = add nuw i32 %.057.us, 1
  %82 = getelementptr inbounds nuw i16, ptr %.04655.us, i64 %74
  %83 = getelementptr inbounds nuw i8, ptr %.04456.us, i64 16
  %exitcond76.not = icmp eq i32 %81, %71
  br i1 %exitcond76.not, label %._crit_edge, label %.lr.ph.split.us

.lr.ph.split:                                     ; preds = %.lr.ph, %.lr.ph.split
  %.057 = phi i32 [ %100, %.lr.ph.split ], [ 0, %.lr.ph ]
  %.04456 = phi ptr [ %102, %.lr.ph.split ], [ %67, %.lr.ph ]
  %.04655 = phi ptr [ %101, %.lr.ph.split ], [ %61, %.lr.ph ]
  %84 = load i16, ptr %.04655, align 2, !tbaa !32
  %85 = uitofp i16 %84 to float
  %86 = fmul reassoc nsz arcp contract afn float %16, %85
  store float %86, ptr %.04456, align 4, !tbaa !85
  %87 = getelementptr inbounds nuw i8, ptr %.04655, i64 2
  %88 = load i16, ptr %87, align 2, !tbaa !32
  %89 = uitofp i16 %88 to float
  %90 = fmul reassoc nsz arcp contract afn float %89, 3.906250e-03
  %91 = fadd reassoc nsz arcp contract afn float %90, -1.280000e+02
  %92 = getelementptr inbounds nuw i8, ptr %.04456, i64 4
  store float %91, ptr %92, align 4, !tbaa !85
  %93 = getelementptr inbounds nuw i8, ptr %.04655, i64 4
  %94 = load i16, ptr %93, align 2, !tbaa !32
  %95 = uitofp i16 %94 to float
  %96 = fmul reassoc nsz arcp contract afn float %95, 3.906250e-03
  %97 = fadd reassoc nsz arcp contract afn float %96, -1.280000e+02
  %98 = getelementptr inbounds nuw i8, ptr %.04456, i64 8
  store float %97, ptr %98, align 4, !tbaa !85
  %99 = getelementptr inbounds nuw i8, ptr %.04456, i64 12
  store float 0.000000e+00, ptr %99, align 4, !tbaa !85
  %100 = add nuw i32 %.057, 1
  %101 = getelementptr inbounds nuw i16, ptr %.04655, i64 %74
  %102 = getelementptr inbounds nuw i8, ptr %.04456, i64 16
  %exitcond.not = icmp eq i32 %100, %71
  br i1 %exitcond.not, label %._crit_edge, label %.lr.ph.split

._crit_edge:                                      ; preds = %.lr.ph.split, %.lr.ph.split.us, %.preheader
  tail call void @cmsDoTransform(ptr noundef %9, ptr noundef %67, ptr noundef %67, i32 noundef %71) #11
  %indvars.iv.next = add nuw nsw i64 %indvars.iv, 1
  %103 = load i32, ptr %10, align 4, !tbaa !69
  %104 = zext i32 %103 to i64
  %105 = icmp samesign ult i64 %indvars.iv.next, %104
  br i1 %105, label %.lr.ph65.split, label %.thread51

.thread51:                                        ; preds = %.lr.ph65.split, %._crit_edge, %.lr.ph65.split.us, %._crit_edge.us, %2
  %.045 = phi i32 [ 1, %2 ], [ 1, %._crit_edge.us ], [ -1, %.lr.ph65.split.us ], [ 1, %._crit_edge ], [ -1, %.lr.ph65.split ]
  tail call void @cmsDeleteTransform(ptr noundef %9) #11
  ret i32 %.045
}